; Function Attrs: nounwind uwtable
define void @Gia_ManQuantVerify(ptr noundef %0, i32 noundef %1) local_unnamed_addr #2 {
  %3 = getelementptr i8, ptr %0, i64 980
  %.val = load i32, ptr %3, align 4, !tbaa !31
  %4 = getelementptr i8, ptr %0, i64 984
  %.val16 = load ptr, ptr %4, align 8, !tbaa !32
  %5 = getelementptr i8, ptr %.val16, i64 8
  %.val16.val = load ptr, ptr %5, align 8, !tbaa !33
  %6 = mul nsw i32 %.val, %1
  %7 = sext i32 %6 to i64
  %8 = getelementptr inbounds i64, ptr %.val16.val, i64 %7
  %9 = getelementptr i8, ptr %0, i64 1012
  %.val1719 = load i32, ptr %9, align 4, !tbaa !36
  %10 = icmp sgt i32 %.val1719, 0
  br i1 %10, label %.lr.ph, label %.critedge

.lr.ph:                                           ; preds = %2
  %11 = getelementptr i8, ptr %0, i64 1016
  br label %12

12:                                               ; preds = %.lr.ph, %30
  %indvars.iv = phi i64 [ 0, %.lr.ph ], [ %indvars.iv.next, %30 ]
  %.val18 = load ptr, ptr %11, align 8, !tbaa !37
  %13 = getelementptr inbounds nuw i32, ptr %.val18, i64 %indvars.iv
  %14 = load i32, ptr %13, align 4, !tbaa !29
  tail call void @Gia_ManIncrementTravId(ptr noundef nonnull %0) #17
  %15 = lshr i64 %indvars.iv, 6
  %16 = and i64 %15, 67108863
  %17 = getelementptr inbounds nuw i64, ptr %8, i64 %16
  %18 = load i64, ptr %17, align 8, !tbaa !38
  %19 = and i64 %indvars.iv, 63
  %20 = lshr i64 %18, %19
  %21 = trunc i64 %20 to i32
  %22 = and i32 %21, 1
  %23 = tail call i32 @Gia_ManQuantVerify_rec(ptr noundef nonnull %0, i32 noundef %1, i32 noundef %14)
  %.not = icmp eq i32 %22, %23
  br i1 %.not, label %30, label %24

24:                                               ; preds = %12
  %25 = load i64, ptr %17, align 8, !tbaa !38
  %26 = lshr i64 %25, %19
  %27 = trunc i64 %26 to i32
  %28 = and i32 %27, 1
  %29 = tail call i32 (ptr, ...) @printf(ptr noundef nonnull dereferenceable(1) @.str, i32 noundef %1, i32 noundef %14, i32 noundef %28)
  br label %30

30:                                               ; preds = %12, %24
  %indvars.iv.next = add nuw nsw i64 %indvars.iv, 1
  %.val17 = load i32, ptr %9, align 4, !tbaa !36
  %31 = sext i32 %.val17 to i64
  %32 = icmp slt i64 %indvars.iv.next, %31
  br i1 %32, label %12, label %.critedge, !llvm.loop !39

.critedge:                                        ; preds = %30, %2
  ret void
}